; Function Attrs: mustprogress nounwind willreturn uwtable
define void @PMIx_Endpoint_destruct(ptr noundef readonly captures(none) %0) local_unnamed_addr #16 {
  %2 = load ptr, ptr %0, align 8, !tbaa !49
  %.not.i = icmp eq ptr %2, null
  br i1 %.not.i, label %4, label %3

3:                                                ; preds = %1
  tail call void @free(ptr noundef nonnull %2) #44
  br label %4

4:                                                ; preds = %3, %1
  %5 = getelementptr inbounds nuw i8, ptr %0, i64 8
  %6 = load ptr, ptr %5, align 8, !tbaa !52
  %.not11.i = icmp eq ptr %6, null
  br i1 %.not11.i, label %8, label %7

7:                                                ; preds = %4
  tail call void @free(ptr noundef nonnull %6) #44
  br label %8

8:                                                ; preds = %7, %4
  %9 = getelementptr inbounds nuw i8, ptr %0, i64 16
  %10 = load ptr, ptr %9, align 8, !tbaa !53
  %.not12.i = icmp eq ptr %10, null
  br i1 %.not12.i, label %pmix_bfrops_base_tma_endpoint_destruct.exit, label %11

11:                                               ; preds = %8
  tail call void @free(ptr noundef nonnull %10) #44
  br label %pmix_bfrops_base_tma_endpoint_destruct.exit

pmix_bfrops_base_tma_endpoint_destruct.exit:      ; preds = %8, %11
  ret void
}